; Function Attrs: mustprogress uwtable
define hidden void @_ZN5osgeo4proj4util10BaseObject10assignSelfERKNS1_15BaseObjectNNPtrE(ptr nocapture noundef nonnull readonly align 8 dereferenceable(16) %0, ptr nocapture noundef nonnull readonly align 8 dereferenceable(16) %1) local_unnamed_addr #0 align 2 personality ptr @__gxx_personality_v0 {
  %3 = getelementptr inbounds i8, ptr %0, i64 8
  %4 = load ptr, ptr %3, align 8
  %5 = load ptr, ptr %1, align 8
  store ptr %5, ptr %4, align 8
  %6 = getelementptr inbounds i8, ptr %1, i64 8
  %7 = getelementptr inbounds i8, ptr %4, i64 8
  %8 = load ptr, ptr %6, align 8
  %.not.i.i.i = icmp eq ptr %8, null
  br i1 %.not.i.i.i, label %_ZNSt16_Sp_counted_baseILN9__gnu_cxx12_Lock_policyE2EE15_M_weak_add_refEv.exit.i.i.i, label %9

9:                                                ; preds = %2
  %10 = getelementptr inbounds i8, ptr %8, i64 12
  %11 = load i8, ptr @__libc_single_threaded, align 1
  %.not.i.i.i.i = icmp eq i8 %11, 0
  br i1 %.not.i.i.i.i, label %15, label %12

12:                                               ; preds = %9
  %13 = load i32, ptr %10, align 4
  %14 = add nsw i32 %13, 1
  store i32 %14, ptr %10, align 4
  br label %_ZNSt16_Sp_counted_baseILN9__gnu_cxx12_Lock_policyE2EE15_M_weak_add_refEv.exit.i.i.i

15:                                               ; preds = %9
  %16 = atomicrmw volatile add ptr %10, i32 1 acq_rel, align 4
  br label %_ZNSt16_Sp_counted_baseILN9__gnu_cxx12_Lock_policyE2EE15_M_weak_add_refEv.exit.i.i.i

_ZNSt16_Sp_counted_baseILN9__gnu_cxx12_Lock_policyE2EE15_M_weak_add_refEv.exit.i.i.i: ; preds = %15, %12, %2
  %17 = load ptr, ptr %7, align 8
  %.not6.i.i.i = icmp eq ptr %17, null
  br i1 %.not6.i.i.i, label %_ZNSt8weak_ptrIN5osgeo4proj4util10BaseObjectEEaSIS3_EENSt9enable_ifIXsr13is_assignableIRSt10__weak_ptrIS3_LN9__gnu_cxx12_Lock_policyE2EERKSt10shared_ptrIT_EEE5valueERS4_E4typeESG_.exit, label %18

18:                                               ; preds = %_ZNSt16_Sp_counted_baseILN9__gnu_cxx12_Lock_policyE2EE15_M_weak_add_refEv.exit.i.i.i
  %19 = getelementptr inbounds i8, ptr %17, i64 12
  %20 = load i8, ptr @__libc_single_threaded, align 1
  %.not.i7.i.i.i = icmp eq i8 %20, 0
  br i1 %.not.i7.i.i.i, label %24, label %21

21:                                               ; preds = %18
  %22 = load i32, ptr %19, align 4
  %23 = add nsw i32 %22, -1
  store i32 %23, ptr %19, align 4
  br label %26

24:                                               ; preds = %18
  %25 = atomicrmw volatile add ptr %19, i32 -1 acq_rel, align 4
  br label %26

26:                                               ; preds = %24, %21
  %.0.i.i.i.i = phi i32 [ %22, %21 ], [ %25, %24 ]
  %27 = icmp eq i32 %.0.i.i.i.i, 1
  br i1 %27, label %28, label %_ZNSt8weak_ptrIN5osgeo4proj4util10BaseObjectEEaSIS3_EENSt9enable_ifIXsr13is_assignableIRSt10__weak_ptrIS3_LN9__gnu_cxx12_Lock_policyE2EERKSt10shared_ptrIT_EEE5valueERS4_E4typeESG_.exit

28:                                               ; preds = %26
  %29 = load ptr, ptr %17, align 8
  %30 = getelementptr inbounds i8, ptr %29, i64 24
  %31 = load ptr, ptr %30, align 8
  tail call void %31(ptr noundef nonnull align 8 dereferenceable(16) %17) #24
  br label %_ZNSt8weak_ptrIN5osgeo4proj4util10BaseObjectEEaSIS3_EENSt9enable_ifIXsr13is_assignableIRSt10__weak_ptrIS3_LN9__gnu_cxx12_Lock_policyE2EERKSt10shared_ptrIT_EEE5valueERS4_E4typeESG_.exit

_ZNSt8weak_ptrIN5osgeo4proj4util10BaseObjectEEaSIS3_EENSt9enable_ifIXsr13is_assignableIRSt10__weak_ptrIS3_LN9__gnu_cxx12_Lock_policyE2EERKSt10shared_ptrIT_EEE5valueERS4_E4typeESG_.exit: ; preds = %_ZNSt16_Sp_counted_baseILN9__gnu_cxx12_Lock_policyE2EE15_M_weak_add_refEv.exit.i.i.i, %26, %28
  store ptr %8, ptr %7, align 8
  ret void
}